(dp0
S'G_V G_PRT G_X'
p1
I21
sS'G_V G_PRT G_V'
p2
I58
sS'G_V G_PRT G_R'
p3
I10
sS'G_V G_PRT G_N'
p4
I27
sS'G_V G_PRT G_J'
p5
I7
sS'G_X U PSP'
p6
I1
sS'<s> @ @'
p7
I19
sS'G_PRP G_R DT'
p8
I3
sS'$ G_N'
p9
I105
sS'G_N G_X $'
p10
I12
sS'G_N G_X #'
p11
I12
sS'$ G_J'
p12
I12
sS'$ G_V'
p13
I15
sS'G_PRP CC PSP'
p14
I1
sS'$ G_R'
p15
I1
sS'CC G_V CC'
p16
I7
sS'$ G_X'
p17
I81
sS'G_J CC G_N'
p18
I6
sS'# PSP'
p19
I5
sS'G_J CC G_J'
p20
I10
sS'G_N G_X E'
p21
I25
sS'<s> G_V G_PRP'
p22
I12
sS'G_V PSP PSP'
p23
I10
sS'G_J CC G_X'
p24
I1
sS'G_J CC G_V'
p25
I15
sS'G_N G_X U'
p26
I6
sS'G_J CC G_R'
p27
I3
sS'PSP G_J G_PRT'
p28
I4
sS'G_X G_N G_PRP'
p29
I19
sS'G_X G_N G_PRT'
p30
I9
sS'G_N G_X ~'
p31
I1
sS'E G_PRT G_N'
p32
I1
sS'<s> @ $'
p33
I1
sS'<s> @ #'
p34
I4
sS'G_V G_PRT G_SYM'
p35
I1
sS'CC G_X G_V'
p36
I1
sS'@ G_PRT G_PRT'
p37
I3
sS'# G_PRT'
p38
I3
sS'# G_PRP'
p39
I1
sS'G_SYM G_X'
p40
I6
sS'PSP G_J <\\s>'
p41
I1
sS'G_PRP DT G_V'
p42
I6
sS'CC PSP G_X'
p43
I2
sS'CC PSP G_V'
p44
I2
sS'G_PRP DT G_X'
p45
I2
sS'G_PRP DT G_J'
p46
I13
sS'G_PRP DT G_N'
p47
I23
sS'G_R G_J G_PRT'
p48
I3
sS'G_R G_J G_PRP'
p49
I11
sS'CC G_X G_X'
p50
I2
sS'G_SYM G_X G_PRT'
p51
I1
sS'G_SYM G_R'
p52
I6
sS'G_J CC G_PRP'
p53
I10
sS'PSP DT CC'
p54
I3
sS'G_PRT G_PRT G_R'
p55
I1
sS'<s> G_V CC'
p56
I2
sS'G_PRT G_PRT G_V'
p57
I10
sS'G_PRT G_PRT G_X'
p58
I18
sS'CC G_J DT'
p59
I1
sS'E G_J G_N'
p60
I1
sS'G_PRT G_PRT G_N'
p61
I4
sS'G_N G_X G_PRT'
p62
I26
sS'G_N G_X G_PRP'
p63
I177
sS'G_X G_PRP'
p64
I451
sS'G_X G_PRT'
p65
I90
sS'G_J G_X <\\s>'
p66
I22
sS'G_SYM G_SYM'
p67
I4
sS'G_R G_PRP DT'
p68
I2
sS'G_V DT G_N'
p69
I230
sS'G_PRT G_N $'
p70
I1
sS'G_V DT G_J'
p71
I118
sS'G_V DT G_V'
p72
I13
sS'G_V DT G_R'
p73
I14
sS'G_V DT G_X'
p74
I15
sS'G_V E <\\s>'
p75
I13
sS'G_PRP G_PRP G_X'
p76
I4
sS'G_PRT G_PRT $'
p77
I1
sS'G_N G_V DT'
p78
I44
sS'G_PRT G_PRT #'
p79
I2
sS'G_X G_N'
p80
I370
sS'G_X PSP CC'
p81
I2
sS'@ @'
p82
I39
sS'G_V G_J PSP'
p83
I27
sS'G_V PSP G_PRP'
p84
I54
sS'G_V PSP G_PRT'
p85
I6
sS'G_J G_N $'
p86
I1
sS'DT G_N DT'
p87
I7
sS'G_PRT # <\\s>'
p88
I5
sS'$ E #'
p89
I1
sS'G_X DT G_SYM'
p90
I1
sS'E E'
p91
I15
sS'E @'
p92
I1
sS'G_N G_J'
p93
I65
sS'G_V PSP'
p94
I365
sS'G_N G_N'
p95
I654
sS'<s> G_PRP #'
p96
I1
sS'G_N G_X'
p97
I1020
sS'G_V G_V G_SYM'
p98
I3
sS'G_N G_R'
p99
I194
sS'G_N G_V'
p100
I585
sS'G_SYM G_PRT G_PRP'
p101
I1
sS'DT CC PSP'
p102
I1
sS'PSP PSP G_PRP'
p103
I7
sS'G_J PSP G_R'
p104
I2
sS'G_J PSP G_V'
p105
I17
sS'G_J PSP G_X'
p106
I6
sS'E #'
p107
I10
sS'G_J PSP G_J'
p108
I11
sS'@ DT'
p109
I2
sS'G_J PSP G_N'
p110
I13
sS'DT G_N E'
p111
I5
sS'G_PRP G_J @'
p112
I1
sS'@ G_PRP G_PRP'
p113
I1
sS'G_X # #'
p114
I18
sS'PSP G_N CC'
p115
I30
sS'<s> @ G_X'
p116
I3
sS'G_J G_V'
p117
I102
sS'G_J G_R'
p118
I30
sS'G_PRP G_PRP'
p119
I90
sS'G_J G_X'
p120
I156
sS'G_PRP G_PRT'
p121
I47
sS'G_J G_X #'
p122
I3
sS'G_N G_R DT'
p123
I7
sS'null G_X <\\s>'
p124
I1
sS'G_J G_N'
p125
I568
sS'G_J G_J'
p126
I75
sS'E G_R PSP'
p127
I1
sS'G_X E G_PRP'
p128
I1
sS'G_X E G_PRT'
p129
I1
sS'G_PRT G_R G_PRP'
p130
I4
sS'G_J G_X @'
p131
I1
sS'$ G_SYM'
p132
I1
sS'G_J G_X E'
p133
I1
sS'DT G_N #'
p134
I3
sS'DT G_N $'
p135
I2
sS'E E E'
p136
I1
sS'PSP G_V G_N'
p137
I24
sS'E E @'
p138
I1
sS'PSP G_V G_J'
p139
I13
sS'G_X # U'
p140
I2
sS'PSP G_V G_V'
p141
I61
sS'PSP G_V G_R'
p142
I17
sS'G_X # @'
p143
I1
sS'PSP G_V G_X'
p144
I22
sS'G_R CC CC'
p145
I1
sS'G_X # E'
p146
I1
sS'# G_X #'
p147
I3
sS'G_R CC $'
p148
I1
sS'DT G_SYM'
p149
I9
sS'U G_X G_PRT'
p150
I1
sS'# G_N PSP'
p151
I2
sS'G_X DT'
p152
I107
sS'G_PRT DT DT'
p153
I1
sS'$ CC G_PRP'
p154
I1
sS'<s> G_PRP G_PRT'
p155
I3
sS'G_V G_SYM G_R'
p156
I1
sS'G_V G_SYM G_V'
p157
I1
sS'U G_N E'
p158
I1
sS'# G_R G_V'
p159
I2
sS'G_R G_N <\\s>'
p160
I1
sS'PSP G_SYM G_N'
p161
I22
sS'G_R PSP G_PRT'
p162
I3
sS'G_R PSP G_PRP'
p163
I23
sS'G_V G_SYM G_N'
p164
I7
sS'G_V G_PRT G_PRT'
p165
I10
sS'DT G_PRT G_N'
p166
I1
sS'G_PRP G_V PSP'
p167
I65
sS'DT PSP G_PRP'
p168
I6
sS'DT G_PRP PSP'
p169
I4
sS'G_V # G_X'
p170
I2
sS'CC $ G_N'
p171
I6
sS'# G_V'
p172
I4
sS'$ $ G_V'
p173
I1
sS'G_R CC DT'
p174
I5
sS'G_V # G_J'
p175
I1
sS'CC $ G_X'
p176
I2
sS'G_V # G_N'
p177
I1
sS'G_J CC'
p178
I53
sS'G_V G_V G_V'
p179
I151
sS'@ G_PRT #'
p180
I1
sS'G_V G_V G_R'
p181
I43
sS'DT G_X G_PRT'
p182
I1
sS'G_V G_V G_X'
p183
I130
sS'DT G_X G_PRP'
p184
I4
sS'G_R G_PRT #'
p185
I1
sS'G_PRT G_SYM G_SYM'
p186
I1
sS'G_V G_V G_N'
p187
I93
sS'G_V G_V G_J'
p188
I34
sS'<s> E G_N'
p189
I1
sS'G_PRP G_X DT'
p190
I10
sS'G_R G_N CC'
p191
I5
sS'G_PRP E G_N'
p192
I2
sS'$ <\\s> <s>'
p193
I6
sS'G_PRP E G_X'
p194
I1
sS'<s> E G_V'
p195
I1
sS'G_V $ G_X'
p196
I3
sS'G_PRT G_SYM G_N'
p197
I2
sS'G_PRT G_SYM G_J'
p198
I1
sS'@ # <\\s>'
p199
I1
sS'PSP G_N U'
p200
I1
sS'G_PRT G_SYM G_V'
p201
I1
sS'@ G_X CC'
p202
I1
sS'G_X G_X DT'
p203
I16
sS'G_J G_N E'
p204
I6
sS'G_N G_J G_J'
p205
I2
sS'G_N CC $'
p206
I1
sS'G_N G_J G_N'
p207
I18
sS'CC G_N $'
p208
I4
sS'G_N G_J G_X'
p209
I7
sS'G_N G_J G_R'
p210
I3
sS'G_N G_J G_V'
p211
I11
sS'DT G_R G_X'
p212
I2
sS'G_PRP DT G_R'
p213
I2
sS'G_J G_J G_N'
p214
I46
sS'G_J G_J G_J'
p215
I7
sS'# E #'
p216
I1
sS'DT G_R G_R'
p217
I2
sS'U PSP @'
p218
I1
sS'DT G_R G_V'
p219
I3
sS'DT G_R G_J'
p220
I18
sS'G_J G_J G_X'
p221
I6
sS'DT G_R G_N'
p222
I7
sS'G_X $ <\\s>'
p223
I1
sS'G_PRT G_N CC'
p224
I6
sS'G_J G_J G_V'
p225
I5
sS'G_J G_J G_R'
p226
I2
sS'G_X CC $'
p227
I4
sS'PSP G_SYM PSP'
p228
I2
sS'G_N G_SYM PSP'
p229
I1
sS'G_PRP G_X G_PRT'
p230
I1
sS'G_PRP G_X G_PRP'
p231
I40
sS'PSP G_N E'
p232
I2
sS'PSP G_X <\\s>'
p233
I6
sS'G_PRT G_PRT G_PRP'
p234
I1
sS'G_R G_J G_N'
p235
I38
sS'G_PRT G_PRT G_PRT'
p236
I23
sS'G_R G_J G_J'
p237
I3
sS'G_V G_R G_PRP'
p238
I29
sS'G_R G_J G_V'
p239
I4
sS'G_V G_R G_PRT'
p240
I9
sS'G_R G_J G_R'
p241
I2
sS'PSP G_PRT'
p242
I42
sS'# # G_X'
p243
I2
sS'PSP G_PRP'
p244
I306
sS'G_R G_J G_X'
p245
I26
sS'G_N G_PRP G_PRT'
p246
I6
sS'G_V G_R E'
p247
I4
sS'PSP G_V <\\s>'
p248
I3
sS'G_SYM G_PRP DT'
p249
I1
sS'@ G_X @'
p250
I1
sS'E G_PRP G_V'
p251
I4
sS'E G_PRP G_R'
p252
I1
sS'G_N G_N @'
p253
I1
sS'G_N G_PRP G_PRP'
p254
I10
sS'G_J G_X PSP'
p255
I18
sS'E G_N'
p256
I11
sS'G_V G_R $'
p257
I2
sS'E G_J'
p258
I1
sS'G_V G_R #'
p259
I2
sS'E G_V'
p260
I8
sS'@ G_X #'
p261
I2
sS'E G_R'
p262
I6
sS'G_PRT PSP'
p263
I42
sS'E G_X'
p264
I17
sS'$ PSP DT'
p265
I4
sS'$ G_J G_N'
p266
I7
sS'# G_X G_SYM'
p267
I2
sS'PSP G_PRP G_PRT'
p268
I2
sS'G_SYM #'
p269
I1
sS'E CC'
p270
I3
sS'PSP G_PRP G_PRP'
p271
I6
sS'$ G_PRT G_V'
p272
I1
sS'G_V G_R CC'
p273
I12
sS'G_X G_X U'
p274
I1
sS'G_PRP G_SYM <\\s>'
p275
I1
sS'G_R G_SYM PSP'
p276
I1
sS'G_X G_X E'
p277
I5
sS'CC G_V PSP'
p278
I21
sS'G_X G_X @'
p279
I2
sS'<s> G_PRP G_V'
p280
I44
sS'<s> G_PRP G_R'
p281
I3
sS'CC G_R G_SYM'
p282
I1
sS'G_J E <\\s>'
p283
I8
sS'G_PRT G_SYM CC'
p284
I1
sS'<s> G_PRP G_N'
p285
I11
sS'G_SYM DT'
p286
I1
sS'<s> G_PRP G_J'
p287
I1
sS'$ $'
p288
I1
sS'# G_V G_PRT'
p289
I1
sS'G_X G_N CC'
p290
I9
sS'G_J DT G_N'
p291
I7
sS'G_X G_X $'
p292
I1
sS'G_X G_X #'
p293
I5
sS'G_J DT G_V'
p294
I2
sS'<s> G_X'
p295
I26
sS'<s> G_V'
p296
I56
sS'<s> G_R'
p297
I30
sS'<s> G_N'
p298
I178
sS'G_J @'
p299
I1
sS'G_J E'
p300
I10
sS'G_X $ PSP'
p301
I5
sS'<s> $ G_N'
p302
I6
sS'G_J G_PRP G_PRP'
p303
I4
sS'G_SYM G_PRP G_V'
p304
I1
sS'G_J G_PRP G_PRT'
p305
I1
sS'# G_PRT <\\s>'
p306
I1
sS'G_J G_SYM'
p307
I3
sS'G_PRT G_SYM'
p308
I8
sS'G_PRP $ CC'
p309
I1
sS'<s> G_PRT PSP'
p310
I1
sS'G_X G_R G_SYM'
p311
I1
sS'G_X ~ G_X'
p312
I1
sS'<s> G_PRP DT'
p313
I4
sS'G_PRT U <\\s>'
p314
I1
sS'G_X PSP $'
p315
I9
sS'<\\s> <s> PSP'
p316
I16
sS'$ G_V CC'
p317
I1
sS'G_J #'
p318
I3
sS'G_SYM G_J CC'
p319
I1
sS'G_J $'
p320
I13
sS'G_N PSP DT'
p321
I127
sS'G_J G_PRP PSP'
p322
I1
sS'G_V G_J G_X'
p323
I34
sS'G_N DT G_X'
p324
I3
sS'U G_V DT'
p325
I1
sS'E PSP G_J'
p326
I1
sS'G_N DT G_V'
p327
I6
sS'PSP PSP G_R'
p328
I1
sS'G_N DT G_R'
p329
I1
sS'DT DT PSP'
p330
I6
sS'G_N DT G_N'
p331
I25
sS'E PSP G_V'
p332
I1
sS'G_N DT G_J'
p333
I15
sS'G_SYM CC G_R'
p334
I1
sS'G_SYM CC G_V'
p335
I1
sS'# G_N G_PRT'
p336
I1
sS'# G_N G_PRP'
p337
I2
sS'G_R G_V #'
p338
I2
sS'G_SYM PSP G_PRP'
p339
I1
sS'G_N G_PRP G_R'
p340
I15
sS'<s> CC G_N'
p341
I1
sS'<s> G_V G_V'
p342
I14
sS'<s> G_V G_R'
p343
I3
sS'G_R E G_V'
p344
I2
sS'PSP G_X PSP'
p345
I6
sS'<s> G_V G_X'
p346
I1
sS'$ CC'
p347
I11
sS'DT DT G_PRP'
p348
I1
sS'G_PRT G_V #'
p349
I1
sS'G_SYM U <\\s>'
p350
I1
sS'<s> G_V G_N'
p351
I5
sS'<s> G_V G_J'
p352
I4
sS'CC PSP G_SYM'
p353
I1
sS'<s> DT G_V'
p354
I1
sS'G_PRP DT PSP'
p355
I4
sS'G_PRP G_J G_PRP'
p356
I4
sS'G_V G_PRT #'
p357
I2
sS'G_PRP G_J G_PRT'
p358
I3
sS'@ @ G_PRP'
p359
I2
sS'<s> G_PRT DT'
p360
I2
sS'G_SYM PSP'
p361
I13
sS'<s> @ DT'
p362
I1
sS'G_V $ PSP'
p363
I5
sS'G_PRT G_PRT PSP'
p364
I1
sS'G_J G_PRT DT'
p365
I1
sS'DT G_J DT'
p366
I1
sS'G_PRT G_R G_J'
p367
I3
sS'$ CC $'
p368
I1
sS'G_PRT G_R G_N'
p369
I2
sS'PSP E G_R'
p370
I1
sS'G_PRT G_R G_X'
p371
I3
sS'G_PRT G_R G_R'
p372
I1
sS'G_V G_PRT E'
p373
I3
sS'G_PRT G_R G_V'
p374
I5
sS'G_V G_PRT @'
p375
I1
sS'G_PRP G_X $'
p376
I2
sS'G_SYM G_V G_N'
p377
I2
sS'G_PRT G_J G_X'
p378
I8
sS'G_N $ PSP'
p379
I3
sS'G_R PSP DT'
p380
I29
sS'G_PRP $ G_PRP'
p381
I1
sS'G_N PSP PSP'
p382
I16
sS'DT G_J G_R'
p383
I3
sS'G_V @ @'
p384
I1
sS'G_PRT G_V DT'
p385
I22
sS'G_PRT DT $'
p386
I1
sS'E # #'
p387
I3
sS'G_SYM G_V G_V'
p388
I5
sS'G_SYM G_V G_R'
p389
I1
sS'PSP G_V CC'
p390
I15
sS'G_V G_J <\\s>'
p391
I1
sS'$ G_X CC'
p392
I3
sS'G_R @ G_PRP'
p393
I1
sS'CC G_J G_X'
p394
I6
sS'CC G_N CC'
p395
I8
sS'CC G_J G_R'
p396
I2
sS'<s> U G_V'
p397
I1
sS'CC G_J G_V'
p398
I4
sS'CC G_J G_J'
p399
I6
sS'<s> U G_N'
p400
I1
sS'CC G_J G_N'
p401
I23
sS'<s> G_N CC'
p402
I1
sS'PSP $ G_PRP'
p403
I1
sS'G_N G_PRT DT'
p404
I3
sS'G_PRT G_J G_PRP'
p405
I1
sS'G_R G_R CC'
p406
I1
sS'G_J <\\s>'
p407
I6
sS'PSP G_PRT G_N'
p408
I12
sS'PSP PSP G_X'
p409
I1
sS'PSP G_PRT G_R'
p410
I1
sS'G_PRT G_PRT E'
p411
I4
sS'<s> G_X PSP'
p412
I1
sS'PSP G_PRT G_V'
p413
I9
sS'PSP G_PRT G_X'
p414
I5
sS'G_X G_X PSP'
p415
I14
sS'<s> PSP DT'
p416
I1
sS'G_SYM DT G_N'
p417
I1
sS'G_PRT PSP DT'
p418
I6
sS'G_X G_PRP CC'
p419
I1
sS'PSP # #'
p420
I1
sS'PSP G_PRP <\\s>'
p421
I3
sS'G_R G_SYM G_N'
p422
I3
sS'G_X G_PRT E'
p423
I2
sS'<s> E'
p424
I14
sS'<s> @'
p425
I75
sS'G_V G_N G_PRT'
p426
I16
sS'G_V G_N G_PRP'
p427
I15
sS'<s> U'
p428
I11
sS'G_R G_SYM G_J'
p429
I1
sS'G_R G_V G_PRP'
p430
I55
sS'G_R G_V G_PRT'
p431
I15
sS'<s> $'
p432
I63
sS'<s> #'
p433
I102
sS'G_X G_PRT #'
p434
I4
sS'<s> G_PRT <\\s>'
p435
I6
sS'U <\\s> <s>'
p436
I36
sS'G_PRT G_PRP CC'
p437
I1
sS'PSP PSP $'
p438
I1
sS'U G_V'
p439
I1
sS'G_PRP G_N G_X'
p440
I59
sS'G_R G_X PSP'
p441
I12
sS'G_R G_N PSP'
p442
I18
sS'G_PRP G_N G_R'
p443
I14
sS'<s> @ G_SYM'
p444
I1
sS'G_PRP G_N G_V'
p445
I54
sS'U G_X'
p446
I1
sS'G_SYM CC'
p447
I4
sS'PSP G_R $'
p448
I2
sS'G_PRP G_N G_J'
p449
I5
sS'G_PRP G_N G_N'
p450
I30
sS'U G_N'
p451
I2
sS'<\\s> <s> CC'
p452
I9
sS'PSP G_J'
p453
I118
sS'PSP G_N'
p454
I494
sS'G_V G_N CC'
p455
I31
sS'PSP G_R'
p456
I64
sS'PSP G_PRP E'
p457
I5
sS'PSP G_V'
p458
I256
sS'G_PRT E G_PRP'
p459
I1
sS'G_PRP CC'
p460
I38
sS'G_PRP G_J CC'
p461
I2
sS'G_X E #'
p462
I2
sS'CC G_V E'
p463
I1
sS'G_SYM PSP G_N'
p464
I1
sS'G_PRT G_N E'
p465
I3
sS'DT G_N G_X'
p466
I202
sS'G_X E E'
p467
I4
sS'DT G_N G_V'
p468
I88
sS'DT G_N G_R'
p469
I34
sS'DT G_N G_N'
p470
I78
sS'G_PRP G_V G_PRT'
p471
I54
sS'DT G_N G_J'
p472
I6
sS'PSP DT G_PRP'
p473
I5
sS'G_PRP G_J G_V'
p474
I12
sS'G_PRP G_J G_R'
p475
I2
sS'G_PRP CC G_V'
p476
I17
sS'CC DT'
p477
I77
sS'G_PRP CC G_R'
p478
I4
sS'G_PRP G_J G_X'
p479
I10
sS'G_PRP G_PRT PSP'
p480
I2
sS'PSP G_PRP #'
p481
I1
sS'G_J G_V PSP'
p482
I12
sS'DT G_J G_PRP'
p483
I1
sS'G_PRP G_J G_N'
p484
I31
sS'<s> E PSP'
p485
I1
sS'G_V G_X G_PRT'
p486
I16
sS'DT G_J G_PRT'
p487
I1
sS'G_PRP G_J G_J'
p488
I4
sS'G_V G_X G_PRP'
p489
I50
sS'PSP G_PRT G_SYM'
p490
I1
sS'CC G_R CC'
p491
I1
sS'G_SYM G_X PSP'
p492
I2
sS'G_SYM G_X U'
p493
I1
sS'G_SYM G_N DT'
p494
I1
sS'PSP G_PRT CC'
p495
I1
sS'G_X G_PRT G_PRT'
p496
I11
sS'G_X G_PRT G_PRP'
p497
I6
sS'G_J G_X G_PRP'
p498
I25
sS'G_J G_X G_PRT'
p499
I3
sS'$ G_PRP G_V'
p500
I6
sS'G_PRP <\\s>'
p501
I9
sS'CC # G_PRT'
p502
I1
sS'DT PSP CC'
p503
I1
sS'G_X G_R G_X'
p504
I11
sS'G_R <\\s> <s>'
p505
I3
sS'G_X G_R G_V'
p506
I37
sS'G_X G_R G_R'
p507
I8
sS'G_SYM G_N G_PRT'
p508
I4
sS'G_X G_R G_N'
p509
I8
sS'G_SYM G_N G_PRP'
p510
I2
sS'G_X G_R G_J'
p511
I18
sS'G_N G_N CC'
p512
I21
sS'$ G_X PSP'
p513
I10
sS'@ G_N G_N'
p514
I7
sS'G_N G_PRT CC'
p515
I1
sS'$ G_X #'
p516
I1
sS'@ G_N G_V'
p517
I2
sS'@ G_N G_R'
p518
I2
sS'G_V G_X G_SYM'
p519
I11
sS'G_R DT G_R'
p520
I1
sS'G_R DT G_V'
p521
I3
sS'G_R DT G_X'
p522
I2
sS'G_R DT G_J'
p523
I14
sS'G_R DT G_N'
p524
I32
sS'CC G_N G_X'
p525
I38
sS'CC G_N G_V'
p526
I19
sS'CC G_N G_R'
p527
I7
sS'E CC G_PRP'
p528
I1
sS'CC G_N G_N'
p529
I21
sS'E G_PRT'
p530
I2
sS'G_J G_V G_J'
p531
I1
sS'CC G_N G_J'
p532
I2
sS'G_N DT G_SYM'
p533
I1
sS'E G_PRP'
p534
I5
sS'<s> G_J G_X'
p535
I6
sS'<s> G_PRT CC'
p536
I1
sS'<s> G_J G_R'
p537
I2
sS'$ G_J CC'
p538
I1
sS'G_V # #'
p539
I6
sS'<s> G_J G_V'
p540
I2
sS'$ G_X @'
p541
I1
sS'<s> G_J G_J'
p542
I2
sS'<s> G_J G_N'
p543
I17
sS'DT G_J $'
p544
I6
sS'G_N G_PRT G_SYM'
p545
I1
sS'DT G_SYM DT'
p546
I1
sS'G_V G_J $'
p547
I2
sS'G_V G_J #'
p548
I1
sS'G_R G_R G_PRT'
p549
I1
sS'G_R G_R G_PRP'
p550
I12
sS'PSP G_N G_SYM'
p551
I1
sS'CC G_X'
p552
I15
sS'CC G_V'
p553
I181
sS'G_SYM G_J G_J'
p554
I1
sS'CC G_R'
p555
I58
sS'G_SYM G_J G_N'
p556
I11
sS'CC G_N'
p557
I134
sS'G_SYM G_J G_R'
p558
I1
sS'CC G_J'
p559
I47
sS'G_SYM G_J G_V'
p560
I3
sS'G_SYM G_J G_X'
p561
I3
sS'PSP G_N DT'
p562
I7
sS'G_N G_SYM G_J'
p563
I3
sS'@ G_N G_PRP'
p564
I4
sS'G_N G_SYM G_N'
p565
I10
sS'G_N G_X G_X'
p566
I73
sS'G_N G_X G_V'
p567
I120
sS'G_V G_N DT'
p568
I4
sS'G_N G_X G_R'
p569
I70
sS'G_N G_SYM G_X'
p570
I1
sS'G_N G_PRP G_J'
p571
I6
sS'G_N G_PRP G_N'
p572
I26
sS'G_R G_PRT'
p573
I25
sS'G_N G_SYM G_R'
p574
I1
sS'G_R G_PRP'
p575
I151
sS'G_N G_R PSP'
p576
I26
sS'DT G_J E'
p577
I1
sS'G_J G_V G_R'
p578
I3
sS'G_PRP PSP G_SYM'
p579
I2
sS'PSP G_PRT G_J'
p580
I3
sS'G_PRP G_PRT G_R'
p581
I1
sS'G_X $ $'
p582
I1
sS'<s> # #'
p583
I1
sS'E G_N PSP'
p584
I2
sS'G_X DT G_PRP'
p585
I1
sS'G_PRP G_X U'
p586
I1
sS'DT PSP G_SYM'
p587
I1
sS'G_V G_V PSP'
p588
I97
sS'G_PRT DT E'
p589
I1
sS'G_N G_N G_SYM'
p590
I3
sS'CC G_PRP CC'
p591
I1
sS'G_SYM G_PRT G_N'
p592
I1
sS'G_SYM G_PRT G_J'
p593
I1
sS'@ @ @'
p594
I18
sS'@ CC DT'
p595
I1
sS'G_J G_X DT'
p596
I2
sS'G_SYM G_PRT G_V'
p597
I3
sS'@ G_PRT'
p598
I16
sS'G_J CC $'
p599
I1
sS'@ G_PRP'
p600
I11
sS'<s> # E'
p601
I1
sS'G_R G_SYM CC'
p602
I1
sS'G_V G_V G_PRT'
p603
I41
sS'G_V G_V G_PRP'
p604
I90
sS'G_PRP G_PRT CC'
p605
I2
sS'G_X CC'
p606
I95
sS'G_J G_V CC'
p607
I4
sS'G_PRT G_N <\\s>'
p608
I2
sS'G_PRT PSP PSP'
p609
I1
sS'CC G_SYM'
p610
I8
sS'G_V <\\s>'
p611
I48
sS'DT CC G_J'
p612
I1
sS'DT CC G_N'
p613
I1
sS'G_V G_SYM PSP'
p614
I4
sS'G_N $ G_X'
p615
I2
sS'<s> G_N G_X'
p616
I28
sS'<s> G_N G_V'
p617
I28
sS'<s> G_N G_R'
p618
I6
sS'G_N $ G_V'
p619
I1
sS'<s> G_N G_N'
p620
I65
sS'G_N $ G_J'
p621
I1
sS'G_PRT PSP $'
p622
I2
sS'G_R <\\s>'
p623
I3
sS'<s> G_N G_J'
p624
I4
sS'G_N $ G_N'
p625
I17
sS'G_V G_J DT'
p626
I5
sS'@ G_V DT'
p627
I1
sS'G_V G_X <\\s>'
p628
I69
sS'G_PRP G_X CC'
p629
I5
sS'G_X G_PRP PSP'
p630
I7
sS'G_X CC G_N'
p631
I16
sS'PSP G_V G_PRP'
p632
I30
sS'G_X CC G_R'
p633
I14
sS'PSP G_V G_PRT'
p634
I9
sS'G_X CC G_V'
p635
I9
sS'G_X CC G_X'
p636
I3
sS'<\\s> <s> DT'
p637
I9
sS'DT G_V DT'
p638
I9
sS'DT DT $'
p639
I2
sS'G_X G_SYM G_V'
p640
I1
sS'@ #'
p641
I7
sS'@ $'
p642
I1
sS'G_J G_N G_PRP'
p643
I32
sS'G_PRT G_X CC'
p644
I2
sS'G_J G_N G_PRT'
p645
I17
sS'G_SYM G_PRT G_SYM'
p646
I1
sS'G_X G_R G_PRT'
p647
I3
sS'PSP G_N G_X'
p648
I128
sS'G_V G_SYM'
p649
I14
sS'G_X G_R G_PRP'
p650
I40
sS'PSP G_N G_V'
p651
I83
sS'<s> E <\\s>'
p652
I8
sS'G_PRP G_R <\\s>'
p653
I1
sS'PSP G_N G_R'
p654
I15
sS'@ CC G_SYM'
p655
I1
sS'PSP G_N G_N'
p656
I66
sS'PSP G_N G_J'
p657
I7
sS'PSP PSP DT'
p658
I6
sS'CC G_X G_R'
p659
I2
sS'$ PSP G_N'
p660
I5
sS'G_PRT G_J $'
p661
I1
sS'$ PSP G_V'
p662
I2
sS'CC G_X G_N'
p663
I2
sS'PSP G_N #'
p664
I1
sS'CC G_X G_J'
p665
I1
sS'@ G_X G_N'
p666
I4
sS'@ G_X G_X'
p667
I1
sS'@ G_X G_V'
p668
I2
sS'G_J G_PRT G_PRP'
p669
I3
sS'DT G_X DT'
p670
I1
sS'G_PRP PSP PSP'
p671
I5
sS'G_V E #'
p672
I2
sS'G_X E G_X'
p673
I4
sS'G_V G_PRT G_PRP'
p674
I14
sS'<s> G_PRP G_PRP'
p675
I2
sS'$ G_N CC'
p676
I3
sS'PSP G_SYM G_J'
p677
I1
sS'G_X E G_R'
p678
I2
sS'G_X E G_V'
p679
I1
sS'G_PRT DT'
p680
I36
sS'PSP G_SYM G_X'
p681
I1
sS'G_X E G_N'
p682
I1
sS'G_V G_N PSP'
p683
I91
sS'PSP G_SYM G_V'
p684
I2
sS'G_N E G_X'
p685
I7
sS'G_N G_N G_V'
p686
I75
sS'G_N G_N G_R'
p687
I16
sS'G_N E G_R'
p688
I1
sS'G_N E G_V'
p689
I1
sS'G_N G_N G_X'
p690
I155
sS'G_N G_N DT'
p691
I9
sS'G_N E G_N'
p692
I1
sS'G_N G_N G_N'
p693
I137
sS'G_N G_N G_J'
p694
I11
sS'G_X G_J <\\s>'
p695
I1
sS'G_V U <\\s>'
p696
I1
sS'G_V E E'
p697
I4
sS'CC G_V G_PRT'
p698
I11
sS'CC G_V G_PRP'
p699
I37
sS'G_V G_J G_J'
p700
I12
sS'CC G_R G_PRP'
p701
I10
sS'G_V G_J G_N'
p702
I55
sS'G_PRT G_N PSP'
p703
I16
sS'G_PRT PSP CC'
p704
I1
sS'G_V G_J G_R'
p705
I9
sS'G_V G_J G_V'
p706
I9
sS'E PSP'
p707
I4
sS'<s> U <\\s>'
p708
I9
sS'G_V CC PSP'
p709
I1
sS'<s> CC G_J'
p710
I1
sS'CC G_R G_PRT'
p711
I3
sS'G_V E CC'
p712
I1
sS'CC DT $'
p713
I1
sS'CC G_PRP G_X'
p714
I6
sS'G_N CC G_PRP'
p715
I44
sS'<s> CC G_X'
p716
I1
sS'G_N CC G_PRT'
p717
I1
sS'<s> CC G_R'
p718
I5
sS'DT CC G_SYM'
p719
I1
sS'PSP G_R PSP'
p720
I6
sS'DT PSP'
p721
I24
sS'G_R DT G_PRP'
p722
I2
sS'$ G_X G_N'
p723
I5
sS'@ G_J PSP'
p724
I2
sS'PSP G_X G_SYM'
p725
I2
sS'G_PRP G_R G_SYM'
p726
I1
sS'$ G_SYM G_R'
p727
I1
sS'G_V G_PRP CC'
p728
I18
sS'CC G_PRP G_PRT'
p729
I2
sS'G_PRP G_N G_PRT'
p730
I18
sS'CC G_PRP G_PRP'
p731
I4
sS'G_X PSP G_SYM'
p732
I2
sS'G_PRP G_N G_PRP'
p733
I18
sS'@ DT G_N'
p734
I1
sS'G_R G_N G_X'
p735
I18
sS'@ DT G_J'
p736
I1
sS'G_J DT $'
p737
I1
sS'G_R G_N G_R'
p738
I4
sS'G_R G_N G_V'
p739
I11
sS'G_N G_J G_PRP'
p740
I3
sS'G_R G_N G_J'
p741
I4
sS'G_N G_J G_PRT'
p742
I4
sS'G_R G_N G_N'
p743
I12
sS'G_J G_J CC'
p744
I1
sS'# G_SYM G_J'
p745
I1
sS'DT G_X $'
p746
I4
sS'G_PRP G_PRT G_N'
p747
I10
sS'G_V G_PRP PSP'
p748
I40
sS'G_X @ G_X'
p749
I10
sS'G_J G_V G_N'
p750
I13
sS'G_N G_J E'
p751
I1
sS'G_J G_V G_X'
p752
I16
sS'G_PRP G_PRT G_X'
p753
I7
sS'G_PRP G_PRT G_V'
p754
I15
sS'G_J G_V G_V'
p755
I30
sS'G_V # @'
p756
I1
sS'G_N G_J $'
p757
I1
sS'CC CC G_R'
p758
I1
sS'E G_X @'
p759
I1
sS'G_R G_X <\\s>'
p760
I31
sS'G_PRT PSP G_SYM'
p761
I1
sS'G_J CC DT'
p762
I7
sS'G_R E <\\s>'
p763
I4
sS'DT E CC'
p764
I1
sS'G_PRP # G_N'
p765
I1
sS'CC PSP PSP'
p766
I1
sS'$ G_PRP'
p767
I10
sS'$ G_PRT'
p768
I2
sS'<s> G_R G_R'
p769
I3
sS'<s> G_R G_V'
p770
I6
sS'<s> PSP G_R'
p771
I1
sS'G_V G_PRP G_SYM'
p772
I4
sS'G_X G_X G_PRP'
p773
I20
sS'<s> G_R G_X'
p774
I5
sS'G_SYM G_V PSP'
p775
I6
sS'G_X G_X G_PRT'
p776
I7
sS'G_X CC G_PRP'
p777
I20
sS'<s> G_R G_J'
p778
I3
sS'<s> PSP G_N'
p779
I5
sS'G_X CC PSP'
p780
I6
sS'<s> G_R G_N'
p781
I2
sS'G_V CC DT'
p782
I13
sS'G_V CC'
p783
I140
sS'G_X G_N G_SYM'
p784
I2
sS'G_X CC G_PRT'
p785
I3
sS'G_X G_V G_SYM'
p786
I2
sS'G_SYM G_V G_PRT'
p787
I1
sS'DT DT <\\s>'
p788
I1
sS'G_PRP G_X PSP'
p789
I12
sS'G_X G_V $'
p790
I5
sS'G_PRT G_SYM PSP'
p791
I1
sS'G_PRP G_SYM'
p792
I9
sS'G_SYM G_J E'
p793
I1
sS'PSP CC G_PRP'
p794
I3
sS'G_N $ E'
p795
I1
sS'PSP CC'
p796
I17
sS'$ G_V G_PRP'
p797
I2
sS'G_X G_N <\\s>'
p798
I13
sS'G_PRT G_PRP G_R'
p799
I1
sS'G_X G_V CC'
p800
I6
sS'G_J G_PRT'
p801
I27
sS'# G_X <\\s>'
p802
I8
sS'# PSP G_N'
p803
I4
sS'G_J G_PRP'
p804
I29
sS'G_J @ CC'
p805
I1
sS'$ CC G_SYM'
p806
I1
sS'PSP @ CC'
p807
I1
sS'PSP PSP'
p808
I42
sS'CC DT G_SYM'
p809
I1
sS'<s> G_PRT G_PRP'
p810
I5
sS'<s> G_PRT G_PRT'
p811
I9
sS'G_PRT G_V <\\s>'
p812
I8
sS'<s> DT'
p813
I9
sS'CC G_X G_PRP'
p814
I2
sS'E <\\s> <s>'
p815
I135
sS'G_R DT'
p816
I57
sS'G_PRT G_X E'
p817
I8
sS'G_R G_X U'
p818
I3
sS'PSP G_X'
p819
I95
sS'$ PSP G_PRP'
p820
I7
sS'G_PRT G_X U'
p821
I1
sS'<s> G_J PSP'
p822
I1
sS'G_R G_X E'
p823
I5
sS'<s> # G_V'
p824
I1
sS'G_V G_PRP DT'
p825
I36
sS'<s> E G_PRP'
p826
I1
sS'G_N DT PSP'
p827
I3
sS'<s> # G_X'
p828
I93
sS'<s> $ <\\s>'
p829
I2
sS'G_J $ CC'
p830
I1
sS'G_PRP PSP $'
p831
I3
sS'<s> # G_N'
p832
I3
sS'<s> # G_J'
p833
I1
sS'G_X G_SYM G_PRT'
p834
I2
sS'CC G_PRT G_V'
p835
I2
sS'G_PRP G_N <\\s>'
p836
I3
sS'G_V DT G_SYM'
p837
I3
sS'CC G_PRT G_X'
p838
I3
sS'G_X G_SYM'
p839
I30
sS'DT G_PRT PSP'
p840
I1
sS'G_J # G_N'
p841
I1
sS'<s> PSP PSP'
p842
I1
sS'PSP CC G_PRT'
p843
I1
sS'CC G_PRT G_N'
p844
I1
sS'G_PRP $ PSP'
p845
I1
sS'PSP PSP <\\s>'
p846
I1
sS'PSP G_V DT'
p847
I32
sS'G_PRT G_X #'
p848
I3
sS'G_PRT G_X $'
p849
I2
sS'G_R # <\\s>'
p850
I1
sS'G_R G_X #'
p851
I1
sS'PSP PSP G_SYM'
p852
I2
sS'G_X G_V G_PRP'
p853
I53
sS'G_V G_V E'
p854
I11
sS'G_X G_V G_PRT'
p855
I13
sS'G_V G_V U'
p856
I2
sS'G_R DT DT'
p857
I1
sS'DT G_V CC'
p858
I1
sS'G_X G_V PSP'
p859
I22
sS'G_PRP PSP'
p860
I120
sS'G_V G_PRP'
p861
I486
sS'G_V G_PRT'
p862
I200
sS'G_X $ G_X'
p863
I6
sS'G_R PSP G_J'
p864
I4
sS'G_R PSP G_N'
p865
I22
sS'@ $ G_N'
p866
I1
sS'G_X $ G_V'
p867
I5
sS'G_R PSP G_X'
p868
I4
sS'G_X $ G_J'
p869
I3
sS'<s> $ G_X'
p870
I53
sS'G_X $ G_N'
p871
I13
sS'CC G_R G_N'
p872
I5
sS'G_R PSP G_R'
p873
I3
sS'G_R PSP G_V'
p874
I20
sS'G_J G_PRT G_X'
p875
I2
sS'G_V G_V #'
p876
I8
sS'G_V G_V $'
p877
I5
sS'G_J G_PRT G_J'
p878
I2
sS'G_J G_PRT G_N'
p879
I7
sS'G_PRP G_SYM G_J'
p880
I1
sS'G_PRT G_J'
p881
I26
sS'G_PRP G_SYM G_N'
p882
I1
sS'G_PRT G_N'
p883
I124
sS'DT G_X CC'
p884
I2
sS'G_PRT G_R'
p885
I22
sS'G_PRP G_SYM G_V'
p886
I4
sS'G_PRT G_V'
p887
I188
sS'G_V DT'
p888
I426
sS'CC G_SYM G_V'
p889
I1
sS'CC G_PRT G_PRT'
p890
I1
sS'G_PRP G_SYM G_X'
p891
I2
sS'G_PRT G_X'
p892
I139
sS'G_PRP CC U'
p893
I1
sS'G_SYM G_X G_V'
p894
I1
sS'G_R G_X G_J'
p895
I2
sS'G_R G_X G_N'
p896
I10
sS'DT PSP DT'
p897
I4
sS'PSP G_SYM'
p898
I30
sS'G_R G_X G_X'
p899
I10
sS'G_R G_X G_R'
p900
I16
sS'G_R G_X CC'
p901
I7
sS'G_V $ G_N'
p902
I13
sS'G_N E E'
p903
I2
sS'$ G_N G_SYM'
p904
I1
sS'DT G_X PSP'
p905
I6
sS'<s> PSP'
p906
I16
sS'G_PRP CC G_SYM'
p907
I1
sS'G_N E #'
p908
I4
sS'G_PRP G_R E'
p909
I2
sS'DT G_PRT DT'
p910
I1
sS'G_J G_PRP G_V'
p911
I20
sS'G_J G_PRP G_R'
p912
I1
sS'G_PRT G_J CC'
p913
I2
sS'G_X G_PRP G_N'
p914
I43
sS'CC G_V $'
p915
I4
sS'G_X G_PRP G_J'
p916
I10
sS'G_X G_PRP G_V'
p917
I310
sS'G_X G_PRP G_R'
p918
I37
sS'G_X G_PRP G_X'
p919
I4
sS'DT @ G_N'
p920
I1
sS'G_J G_X CC'
p921
I7
sS'G_SYM G_SYM G_V'
p922
I4
sS'G_PRT E <\\s>'
p923
I7
sS'G_PRT E G_J'
p924
I1
sS'G_V G_PRT DT'
p925
I19
sS'G_PRP E <\\s>'
p926
I6
sS'G_N $'
p927
I28
sS'G_PRT E G_X'
p928
I2
sS'G_N #'
p929
I12
sS'<s> @ G_PRP'
p930
I8
sS'<s> @ G_PRT'
p931
I11
sS'# # <\\s>'
p932
I30
sS'PSP G_N G_PRP'
p933
I22
sS'G_N G_V G_PRT'
p934
I30
sS'PSP G_N G_PRT'
p935
I15
sS'G_N G_V G_PRP'
p936
I45
sS'G_N ~'
p937
I1
sS'G_X G_J DT'
p938
I1
sS'PSP G_PRP DT'
p939
I7
sS'G_PRT G_V G_SYM'
p940
I3
sS'<s> G_V PSP'
p941
I3
sS'CC PSP DT'
p942
I6
sS'<s> G_R PSP'
p943
I1
sS'G_N U'
p944
I3
sS'G_V $ CC'
p945
I3
sS'PSP G_X G_N'
p946
I15
sS'G_PRP G_V G_J'
p947
I57
sS'<s> G_N G_PRP'
p948
I7
sS'G_N G_PRP $'
p949
I1
sS'PSP G_X G_J'
p950
I9
sS'G_PRP G_V G_N'
p951
I65
sS'<s> G_N G_PRT'
p952
I4
sS'PSP G_X G_V'
p953
I9
sS'G_PRP G_V G_R'
p954
I99
sS'PSP G_X G_R'
p955
I5
sS'G_PRP G_V G_V'
p956
I254
sS'G_PRP G_V G_X'
p957
I56
sS'PSP G_X G_X'
p958
I11
sS'G_N ~ <\\s>'
p959
I1
sS'G_X G_N DT'
p960
I10
sS'G_X G_X G_J'
p961
I10
sS'G_PRP CC G_N'
p962
I3
sS'G_X G_X G_N'
p963
I37
sS'G_X G_X G_R'
p964
I7
sS'G_J G_N DT'
p965
I5
sS'G_X G_X G_V'
p966
I32
sS'G_X G_X G_X'
p967
I67
sS'<s> G_R DT'
p968
I1
sS'G_N CC CC'
p969
I2
sS'$ G_X G_PRP'
p970
I22
sS'G_SYM PSP G_J'
p971
I1
sS'G_PRT # #'
p972
I1
sS'<s> G_PRP PSP'
p973
I3
sS'PSP CC DT'
p974
I2
sS'G_N # #'
p975
I4
sS'G_R G_J CC'
p976
I10
sS'G_PRP DT DT'
p977
I7
sS'G_X CC DT'
p978
I11
sS'G_PRT G_V PSP'
p979
I15
sS'G_X G_PRP G_SYM'
p980
I1
sS'# PSP G_X'
p981
I1
sS'G_V CC G_J'
p982
I7
sS'G_V CC G_N'
p983
I27
sS'G_R G_R G_X'
p984
I17
sS'PSP G_X DT'
p985
I1
sS'G_PRP CC G_PRP'
p986
I6
sS'G_PRP G_R CC'
p987
I2
sS'G_R G_R G_V'
p988
I13
sS'G_R G_R G_R'
p989
I4
sS'G_V CC G_X'
p990
I2
sS'G_R G_R G_N'
p991
I5
sS'G_R G_R G_J'
p992
I2
sS'G_V CC G_R'
p993
I9
sS'G_V CC G_V'
p994
I55
sS'E <\\s>'
p995
I135
sS'E G_N G_V'
p996
I2
sS'G_X G_PRT PSP'
p997
I3
sS'CC DT G_PRP'
p998
I1
sS'CC U <\\s>'
p999
I1
sS'DT G_N <\\s>'
p1000
I9
sS'G_SYM PSP G_X'
p1001
I1
sS'G_PRP PSP G_PRP'
p1002
I22
sS'E G_X <\\s>'
p1003
I3
sS'G_PRP PSP G_PRT'
p1004
I9
sS'G_R G_V G_X'
p1005
I12
sS'PSP DT DT'
p1006
I4
sS'E G_N G_N'
p1007
I4
sS'G_V G_PRP $'
p1008
I4
sS'PSP G_PRP PSP'
p1009
I19
sS'$ G_V PSP'
p1010
I2
sS'G_V G_PRP E'
p1011
I3
sS'G_J $ DT'
p1012
I1
sS'<\\s> <s> G_SYM'
p1013
I8
sS'@ G_X G_PRP'
p1014
I2
sS'@ G_X G_PRT'
p1015
I2
sS'CC DT CC'
p1016
I1
sS'G_PRP G_X E'
p1017
I5
sS'G_V G_V CC'
p1018
I35
sS'@ # G_SYM'
p1019
I1
sS'@ G_J G_V'
p1020
I2
sS'@ G_J G_N'
p1021
I1
sS'DT G_PRT G_X'
p1022
I2
sS'G_R G_V G_J'
p1023
I16
sS'G_J G_V E'
p1024
I1
sS'$ G_PRT DT'
p1025
I1
sS'G_PRP G_PRT E'
p1026
I1
sS'G_R G_V PSP'
p1027
I28
sS'G_X PSP DT'
p1028
I52
sS'G_X @ #'
p1029
I2
sS'G_J $ G_N'
p1030
I8
sS'G_N DT CC'
p1031
I2
sS'G_J G_V #'
p1032
I1
sS'G_N G_N <\\s>'
p1033
I25
sS'G_J $ G_R'
p1034
I1
sS'G_X E PSP'
p1035
I2
sS'PSP G_X CC'
p1036
I5
sS'G_R CC G_V'
p1037
I14
sS'G_R G_PRP G_PRP'
p1038
I3
sS'G_X G_PRP E'
p1039
I1
sS'G_R G_PRP G_PRT'
p1040
I1
sS'G_R G_PRP CC'
p1041
I1
sS'G_PRT G_PRT'
p1042
I74
sS'G_R CC G_X'
p1043
I1
sS'G_PRT G_PRP'
p1044
I48
sS'G_N G_R $'
p1045
I1
sS'PSP G_V #'
p1046
I1
sS'G_X G_N $'
p1047
I6
sS'G_R CC G_N'
p1048
I4
sS'<s> DT G_N'
p1049
I4
sS'G_R CC G_J'
p1050
I1
sS'<s> DT G_J'
p1051
I4
sS'G_R G_V G_R'
p1052
I12
sS'PSP G_R G_SYM'
p1053
I1
sS'DT CC DT'
p1054
I2
sS'CC G_X PSP'
p1055
I3
sS'CC G_R G_R'
p1056
I3
sS'CC G_R G_V'
p1057
I19
sS'G_PRP $ <\\s>'
p1058
I2
sS'CC G_R G_X'
p1059
I4
sS'DT G_N PSP'
p1060
I143
sS'<s> G_SYM'
p1061
I8
sS'G_V PSP CC'
p1062
I6
sS'CC G_R G_J'
p1063
I3
sS'G_N CC'
p1064
I241
sS'G_X G_PRP $'
p1065
I1
sS'G_X G_N U'
p1066
I1
sS'DT G_J PSP'
p1067
I10
sS'G_N G_R E'
p1068
I1
sS'PSP G_V E'
p1069
I2
sS'G_X G_N E'
p1070
I1
sS'@ @ G_SYM'
p1071
I1
sS'E DT G_J'
p1072
I1
sS'G_R G_PRP PSP'
p1073
I5
sS'$ PSP PSP'
p1074
I1
sS'E E <\\s>'
p1075
I9
sS'CC G_N <\\s>'
p1076
I1
sS'@ G_V G_PRP'
p1077
I2
sS'G_X G_SYM G_J'
p1078
I4
sS'G_R G_J DT'
p1079
I1
sS'G_R G_PRT G_PRT'
p1080
I1
sS'G_X G_SYM G_N'
p1081
I14
sS'G_SYM G_N #'
p1082
I1
sS'G_R G_PRT G_PRP'
p1083
I2
sS'G_X G_PRP DT'
p1084
I7
sS'G_N G_N PSP'
p1085
I128
sS'G_X G_SYM G_R'
p1086
I1
sS'G_V <\\s> <s>'
p1087
I48
sS'G_R PSP'
p1088
I114
sS'E G_N G_PRP'
p1089
I1
sS'G_J G_N PSP'
p1090
I119
sS'CC G_PRP'
p1091
I111
sS'G_V DT E'
p1092
I1
sS'G_N G_N G_PRT'
p1093
I20
sS'G_V G_N G_SYM'
p1094
I1
sS'G_N G_N G_PRP'
p1095
I26
sS'# @ <\\s>'
p1096
I3
sS'PSP G_PRT E'
p1097
I2
sS'$ G_V G_X'
p1098
I1
sS'$ G_V G_R'
p1099
I4
sS'$ G_V G_V'
p1100
I3
sS'G_PRT G_SYM G_PRT'
p1101
I1
sS'CC CC G_N'
p1102
I2
sS'$ G_V G_N'
p1103
I1
sS'$ G_X DT'
p1104
I3
sS'G_V null'
p1105
I1
sS'CC G_SYM CC'
p1106
I1
sS'G_N <\\s>'
p1107
I80
sS'G_N G_R G_SYM'
p1108
I3
sS'PSP $ G_J'
p1109
I1
sS'G_PRT G_N G_N'
p1110
I21
sS'PSP $ G_N'
p1111
I26
sS'G_N G_SYM'
p1112
I17
sS'PSP $ G_X'
p1113
I14
sS'G_R G_N DT'
p1114
I1
sS'G_PRT G_N G_X'
p1115
I21
sS'G_PRT G_N G_V'
p1116
I19
sS'PSP $ G_V'
p1117
I2
sS'G_PRT G_N G_R'
p1118
I5
sS'G_R PSP CC'
p1119
I1
sS'G_PRT G_PRT CC'
p1120
I1
sS'G_X G_X <\\s>'
p1121
I28
sS'G_SYM G_N G_N'
p1122
I12
sS'G_PRP G_N PSP'
p1123
I59
sS'G_R G_PRT G_N'
p1124
I3
sS'G_SYM G_N G_J'
p1125
I3
sS'G_R G_PRT G_R'
p1126
I2
sS'G_SYM G_N G_V'
p1127
I11
sS'G_N G_R CC'
p1128
I10
sS'G_R G_PRT G_V'
p1129
I10
sS'G_SYM G_N G_R'
p1130
I2
sS'G_R G_N E'
p1131
I1
sS'G_R G_PRT G_X'
p1132
I5
sS'G_SYM G_N G_X'
p1133
I15
sS'DT G_V G_PRT'
p1134
I1
sS'DT G_V G_PRP'
p1135
I12
sS'PSP $ DT'
p1136
I1
sS'PSP G_J DT'
p1137
I2
sS'G_N DT DT'
p1138
I2
sS'G_V DT $'
p1139
I1
sS'PSP <\\s> <s>'
p1140
I8
sS'<s> G_X @'
p1141
I6
sS'G_PRP G_X G_J'
p1142
I7
sS'G_PRP G_X G_N'
p1143
I14
sS'DT G_SYM G_PRP'
p1144
I1
sS'G_PRP G_X G_R'
p1145
I10
sS'G_PRP G_X G_V'
p1146
I17
sS'G_PRP G_X G_X'
p1147
I10
sS'G_X G_R <\\s>'
p1148
I1
sS'E CC G_X'
p1149
I1
sS'G_N G_PRP PSP'
p1150
I15
sS'E CC G_R'
p1151
I1
sS'PSP G_PRT G_PRP'
p1152
I1
sS'$ <\\s>'
p1153
I6
sS'PSP G_PRT G_PRT'
p1154
I4
sS'G_N # G_X'
p1155
I3
sS'G_X G_J G_V'
p1156
I12
sS'DT G_V PSP'
p1157
I5
sS'G_N PSP G_X'
p1158
I43
sS'G_X G_J G_R'
p1159
I3
sS'G_N G_PRT PSP'
p1160
I12
sS'G_N PSP G_V'
p1161
I107
sS'G_N PSP G_R'
p1162
I27
sS'G_X G_J G_X'
p1163
I22
sS'G_X G_PRP G_PRP'
p1164
I22
sS'G_N PSP G_N'
p1165
I273
sS'G_X G_PRP G_PRT'
p1166
I7
sS'G_N PSP G_J'
p1167
I49
sS'G_V DT @'
p1168
I1
sS'G_X G_J G_N'
p1169
I35
sS'G_X G_J G_J'
p1170
I8
sS'G_X # <\\s>'
p1171
I10
sS'PSP G_R DT'
p1172
I3
sS'CC G_X CC'
p1173
I1
sS'G_N DT'
p1174
I59
sS'<s> # PSP'
p1175
I1
sS'E G_V G_PRT'
p1176
I1
sS'G_N G_X <\\s>'
p1177
I123
sS'<s> G_R G_PRT'
p1178
I1
sS'G_X # PSP'
p1179
I1
sS'<s> G_R G_PRP'
p1180
I8
sS'G_PRT PSP G_PRT'
p1181
I4
sS'DT CC G_PRP'
p1182
I2
sS'G_PRT PSP G_PRP'
p1183
I4
sS'G_V G_SYM #'
p1184
I1
sS'G_V G_N #'
p1185
I2
sS'G_V G_N $'
p1186
I1
sS'$ G_X $'
p1187
I7
sS'G_N G_V PSP'
p1188
I62
sS'G_N # <\\s>'
p1189
I5
sS'G_V G_X G_V'
p1190
I15
sS'G_V G_N G_N'
p1191
I48
sS'G_V G_X G_R'
p1192
I19
sS'G_V G_N G_J'
p1193
I9
sS'G_PRP PSP G_J'
p1194
I7
sS'G_PRP PSP G_N'
p1195
I19
sS'G_V G_X G_X'
p1196
I25
sS'G_PRP PSP G_R'
p1197
I8
sS'G_V G_V DT'
p1198
I77
sS'G_V G_N E'
p1199
I5
sS'G_V G_N G_X'
p1200
I82
sS'G_X G_SYM CC'
p1201
I1
sS'G_V G_X G_N'
p1202
I58
sS'G_PRP PSP G_X'
p1203
I3
sS'G_V G_N G_V'
p1204
I36
sS'G_V G_X G_J'
p1205
I18
sS'G_V G_N G_R'
p1206
I26
sS'G_J DT'
p1207
I12
sS'<s> G_PRT G_V'
p1208
I3
sS'DT G_J'
p1209
I300
sS'DT G_N'
p1210
I691
sS'G_R CC'
p1211
I33
sS'DT G_R'
p1212
I33
sS'G_N PSP <\\s>'
p1213
I3
sS'DT G_V'
p1214
I63
sS'DT G_X'
p1215
I44
sS'G_V $'
p1216
I27
sS'G_X PSP G_PRT'
p1217
I1
sS'G_N G_R G_J'
p1218
I15
sS'G_V #'
p1219
I19
sS'G_N G_R G_N'
p1220
I16
sS'CC PSP'
p1221
I14
sS'G_N G_R G_R'
p1222
I5
sS'G_N G_R G_V'
p1223
I38
sS'G_PRT G_N DT'
p1224
I2
sS'G_N G_R G_X'
p1225
I44
sS'G_R DT $'
p1226
I1
sS'G_X G_PRT DT'
p1227
I5
sS'DT $ G_PRP'
p1228
I1
sS'G_J G_SYM G_V'
p1229
I1
sS'G_PRP G_PRP G_R'
p1230
I9
sS'G_PRP G_PRP G_V'
p1231
I45
sS'G_X G_V DT'
p1232
I27
sS'PSP G_J CC'
p1233
I2
sS'G_J G_R G_X'
p1234
I10
sS'DT E G_R'
p1235
I1
sS'G_X G_X CC'
p1236
I6
sS'G_N G_PRT <\\s>'
p1237
I2
sS'G_J G_R G_N'
p1238
I6
sS'G_PRP G_PRP G_N'
p1239
I11
sS'G_X G_N G_R'
p1240
I17
sS'G_V PSP #'
p1241
I1
sS'G_V PSP $'
p1242
I7
sS'G_X G_N G_V'
p1243
I63
sS'G_PRT PSP G_X'
p1244
I1
sS'G_V E'
p1245
I26
sS'E G_X G_J'
p1246
I1
sS'G_X G_N G_X'
p1247
I93
sS'E G_V G_V'
p1248
I3
sS'G_V @'
p1249
I1
sS'E G_X G_N'
p1250
I3
sS'G_PRT G_PRT <\\s>'
p1251
I4
sS'G_PRT PSP G_N'
p1252
I12
sS'E G_X G_R'
p1253
I1
sS'G_PRT PSP G_J'
p1254
I6
sS'E G_X G_V'
p1255
I1
sS'DT CC'
p1256
I9
sS'G_V U'
p1257
I2
sS'G_X G_N G_J'
p1258
I3
sS'G_X G_N G_N'
p1259
I84
sS'PSP DT G_PRT'
p1260
I1
sS'G_V E G_PRP'
p1261
I1
sS'@ @ G_X'
p1262
I1
sS'G_N CC PSP'
p1263
I3
sS'G_SYM PSP DT'
p1264
I8
sS'G_PRT #'
p1265
I10
sS'G_PRP # #'
p1266
I1
sS'G_X G_J G_PRT'
p1267
I1
sS'G_X G_J G_PRP'
p1268
I2
sS'G_N CC G_R'
p1269
I19
sS'G_R CC G_SYM'
p1270
I1
sS'G_PRT G_PRT DT'
p1271
I3
sS'<s> E E'
p1272
I2
sS'G_V G_R DT'
p1273
I21
sS'@ @ G_R'
p1274
I3
sS'PSP DT G_J'
p1275
I80
sS'G_X U <\\s>'
p1276
I17
sS'PSP DT G_N'
p1277
I234
sS'PSP DT G_R'
p1278
I10
sS'U <\\s>'
p1279
I36
sS'PSP DT G_V'
p1280
I11
sS'PSP DT G_X'
p1281
I9
sS'G_R G_R DT'
p1282
I2
sS'G_J <\\s> <s>'
p1283
I6
sS'G_X PSP G_X'
p1284
I12
sS'# G_V G_SYM'
p1285
I1
sS'G_X PSP G_R'
p1286
I8
sS'G_X PSP G_V'
p1287
I21
sS'G_PRT U'
p1288
I1
sS'G_X PSP G_J'
p1289
I12
sS'G_PRT G_J <\\s>'
p1290
I1
sS'@ @ G_J'
p1291
I1
sS'G_X PSP G_N'
p1292
I33
sS'G_PRT @'
p1293
I1
sS'PSP DT'
p1294
I365
sS'G_PRT E'
p1295
I14
sS'G_J $ G_PRP'
p1296
I2
sS'G_SYM G_PRT'
p1297
I7
sS'@ G_V G_V'
p1298
I2
sS'G_SYM G_PRP'
p1299
I3
sS'G_N U <\\s>'
p1300
I2
sS'DT G_X G_V'
p1301
I7
sS'@ G_V G_N'
p1302
I2
sS'DT G_X G_R'
p1303
I1
sS'G_R E G_PRP'
p1304
I1
sS'G_X <\\s> <s>'
p1305
I341
sS'DT $'
p1306
I13
sS'DT G_X G_X'
p1307
I9
sS'DT #'
p1308
I1
sS'PSP G_R G_X'
p1309
I10
sS'G_N G_PRP <\\s>'
p1310
I1
sS'PSP G_R G_R'
p1311
I4
sS'PSP G_R G_V'
p1312
I8
sS'PSP G_R G_J'
p1313
I6
sS'PSP G_R G_N'
p1314
I10
sS'G_R CC G_PRP'
p1315
I4
sS'G_PRT <\\s>'
p1316
I22
sS'G_V G_PRP G_PRT'
p1317
I22
sS'G_V G_PRP G_PRP'
p1318
I30
sS'G_V G_R G_SYM'
p1319
I2
sS'E @ G_X'
p1320
I1
sS'G_X G_V <\\s>'
p1321
I1
sS'G_V G_V <\\s>'
p1322
I13
sS'DT E'
p1323
I2
sS'DT @'
p1324
I1
sS'E # <\\s>'
p1325
I5
sS'E # G_X'
p1326
I1
sS'G_PRP G_PRP DT'
p1327
I1
sS'G_PRT DT G_N'
p1328
I18
sS'G_PRT DT G_J'
p1329
I11
sS'G_PRT DT G_V'
p1330
I1
sS'$ PSP G_SYM'
p1331
I1
sS'G_PRT DT G_R'
p1332
I1
sS'E # G_N'
p1333
I1
sS'G_N G_X DT'
p1334
I51
sS'<s> CC G_PRT'
p1335
I1
sS'# # @'
p1336
I1
sS'G_PRT DT G_X'
p1337
I1
sS'CC G_J CC'
p1338
I2
sS'@ G_R PSP'
p1339
I1
sS'# G_X DT'
p1340
I4
sS'G_SYM CC G_PRP'
p1341
I1
sS'G_X G_J G_SYM'
p1342
I1
sS'G_PRP G_R PSP'
p1343
I9
sS'G_X G_R $'
p1344
I3
sS'G_N $ G_PRP'
p1345
I2
sS'<s> G_V DT'
p1346
I6
sS'<s> $ PSP'
p1347
I1
sS'G_X PSP G_PRP'
p1348
I45
sS'G_V PSP <\\s>'
p1349
I1
sS'G_N PSP G_SYM'
p1350
I15
sS'# <\\s>'
p1351
I69
sS'PSP @ G_PRT'
p1352
I1
sS'<s> G_V G_PRT'
p1353
I5
sS'@ G_PRT G_PRP'
p1354
I1
sS'G_J PSP DT'
p1355
I19
sS'G_N G_PRT G_PRP'
p1356
I10
sS'# # #'
p1357
I26
sS'G_N G_PRT G_PRT'
p1358
I8
sS'G_X G_J'
p1359
I93
sS'E G_V G_PRP'
p1360
I3
sS'G_PRP G_PRT G_SYM'
p1361
I2
sS'G_X G_R'
p1362
I169
sS'E PSP DT'
p1363
I2
sS'G_X G_V'
p1364
I264
sS'G_J G_N #'
p1365
I1
sS'G_R PSP PSP'
p1366
I1
sS'G_X G_X'
p1367
I259
sS'PSP G_N $'
p1368
I4
sS'G_X G_J CC'
p1369
I5
sS'G_J PSP <\\s>'
p1370
I1
sS'PSP E'
p1371
I2
sS'<s> @ G_J'
p1372
I4
sS'PSP @'
p1373
I2
sS'DT DT'
p1374
I34
sS'<s> @ G_N'
p1375
I16
sS'G_J G_X G_SYM'
p1376
I1
sS'$ DT'
p1377
I2
sS'<s> @ G_R'
p1378
I2
sS'<s> @ G_V'
p1379
I5
sS'PSP $'
p1380
I51
sS'G_V DT PSP'
p1381
I7
sS'PSP #'
p1382
I2
sS'G_V $ G_SYM'
p1383
I1
sS'G_X G_V G_X'
p1384
I14
sS'G_J G_SYM G_J'
p1385
I1
sS'G_X G_V G_R'
p1386
I20
sS'G_SYM G_V CC'
p1387
I2
sS'G_X G_V G_V'
p1388
I56
sS'E G_X G_PRP'
p1389
I2
sS'G_X G_V G_J'
p1390
I12
sS'G_SYM CC G_SYM'
p1391
I1
sS'G_X G_V G_N'
p1392
I33
sS'DT $ PSP'
p1393
I1
sS'~ <\\s>'
p1394
I1
sS'G_J G_R CC'
p1395
I1
sS'G_PRP G_R G_PRP'
p1396
I9
sS'G_PRP G_PRP CC'
p1397
I1
sS'G_PRP G_R G_PRT'
p1398
I2
sS'$ G_J G_V'
p1399
I1
sS'G_N G_N E'
p1400
I14
sS'G_V G_J G_PRT'
p1401
I10
sS'<s> G_N PSP'
p1402
I27
sS'G_PRT G_PRP PSP'
p1403
I4
sS'$ G_J G_J'
p1404
I1
sS'G_V CC #'
p1405
I1
sS'U G_N G_X'
p1406
I1
sS'G_V CC $'
p1407
I2
sS'G_PRP G_PRP G_SYM'
p1408
I2
sS'G_N G_N ~'
p1409
I1
sS'G_PRP G_N'
p1410
I289
sS'G_V # <\\s>'
p1411
I8
sS'G_PRP G_J'
p1412
I77
sS'DT G_J CC'
p1413
I5
sS'G_PRT G_X DT'
p1414
I5
sS'G_N PSP'
p1415
I816
sS'CC G_SYM U'
p1416
I1
sS'G_V G_V null'
p1417
I1
sS'G_PRP G_X'
p1418
I157
sS'G_PRP G_V'
p1419
I955
sS'G_PRP G_R'
p1420
I133
sS'G_PRT G_J G_R'
p1421
I1
sS'@ <\\s> <s>'
p1422
I6
sS'G_PRT G_J G_V'
p1423
I1
sS'G_N G_N #'
p1424
I3
sS'PSP PSP G_N'
p1425
I12
sS'G_N G_N $'
p1426
I9
sS'PSP PSP G_J'
p1427
I4
sS'PSP PSP G_V'
p1428
I7
sS'CC G_N PSP'
p1429
I24
sS'G_PRT G_J G_J'
p1430
I3
sS'G_PRT G_J G_N'
p1431
I7
sS'G_V CC E'
p1432
I1
sS'G_PRP G_N CC'
p1433
I12
sS'G_J G_PRT G_V'
p1434
I12
sS'$ G_N <\\s>'
p1435
I1
sS'G_J G_R G_V'
p1436
I2
sS'@ G_X'
p1437
I15
sS'G_PRP G_V G_PRP'
p1438
I113
sS'@ G_R'
p1439
I5
sS'$ G_N PSP'
p1440
I25
sS'@ G_V'
p1441
I7
sS'$ G_PRP G_N'
p1442
I3
sS'@ G_J'
p1443
I5
sS'G_X G_J #'
p1444
I1
sS'@ G_N'
p1445
I25
sS'G_V PSP G_SYM'
p1446
I3
sS'$ G_PRP G_X'
p1447
I1
sS'G_X E G_SYM'
p1448
I1
sS'G_X # G_PRP'
p1449
I1
sS'G_V PSP G_V'
p1450
I51
sS'G_V PSP G_R'
p1451
I14
sS'G_V PSP G_X'
p1452
I19
sS'G_PRT G_V CC'
p1453
I7
sS'$ CC DT'
p1454
I6
sS'G_X G_PRT <\\s>'
p1455
I4
sS'G_V PSP G_N'
p1456
I89
sS'G_SYM G_N E'
p1457
I1
sS'G_V PSP G_J'
p1458
I23
sS'G_J G_V <\\s>'
p1459
I3
sS'G_X G_PRT G_J'
p1460
I2
sS'G_PRP DT G_PRT'
p1461
I1
sS'G_X G_PRT G_N'
p1462
I12
sS'G_X G_PRT G_R'
p1463
I4
sS'G_X G_PRT G_V'
p1464
I7
sS'G_X G_PRT G_X'
p1465
I30
sS'<\\s> <s> G_PRT'
p1466
I73
sS'G_PRT G_N G_SYM'
p1467
I1
sS'<\\s> <s> G_PRP'
p1468
I72
sS'G_PRP DT G_PRP'
p1469
I1
sS'G_V U CC'
p1470
I1
sS'G_R G_N G_PRP'
p1471
I5
sS'G_PRP G_PRP G_J'
p1472
I7
sS'G_R G_N G_PRT'
p1473
I10
sS'DT PSP G_N'
p1474
I6
sS'CC DT DT'
p1475
I2
sS'G_PRT G_X PSP'
p1476
I1
sS'DT PSP G_V'
p1477
I2
sS'G_J G_R G_J'
p1478
I3
sS'DT PSP G_X'
p1479
I2
sS'CC G_PRP G_R'
p1480
I6
sS'CC G_PRP G_V'
p1481
I54
sS'DT G_PRP'
p1482
I17
sS'$ G_X G_J'
p1483
I3
sS'DT G_PRT'
p1484
I5
sS'PSP G_J PSP'
p1485
I10
sS'$ G_X G_R'
p1486
I9
sS'DT PSP $'
p1487
I2
sS'$ G_X G_V'
p1488
I7
sS'$ G_X G_X'
p1489
I5
sS'CC G_PRP G_J'
p1490
I3
sS'G_N G_V <\\s>'
p1491
I13
sS'CC G_PRP G_N'
p1492
I19
sS'# U <\\s>'
p1493
I4
sS'G_SYM G_PRP <\\s>'
p1494
I1
sS'G_V G_X DT'
p1495
I9
sS'G_PRT PSP G_V'
p1496
I4
sS'# E G_X'
p1497
I1
sS'G_V G_R PSP'
p1498
I30
sS'G_PRP PSP G_V'
p1499
I21
sS'G_SYM G_V G_PRP'
p1500
I1
sS'@ @ <\\s>'
p1501
I1
sS'G_PRP PSP <\\s>'
p1502
I1
sS'G_N G_PRP G_X'
p1503
I14
sS'@ G_PRP PSP'
p1504
I2
sS'G_V CC G_SYM'
p1505
I2
sS'<\\s> <s> @'
p1506
I74
sS'<\\s> <s> E'
p1507
I14
sS'G_X $ CC'
p1508
I3
sS'@ G_N G_PRT'
p1509
I2
sS'G_PRT G_PRP $'
p1510
I2
sS'E G_R G_V'
p1511
I2
sS'E G_R G_R'
p1512
I2
sS'<\\s> <s> U'
p1513
I11
sS'G_V PSP DT'
p1514
I81
sS'G_X PSP <\\s>'
p1515
I1
sS'E G_R G_X'
p1516
I1
sS'<\\s> <s> #'
p1517
I102
sS'G_V G_J G_PRP'
p1518
I5
sS'<\\s> <s> $'
p1519
I63
sS'CC G_R DT'
p1520
I3
sS'G_N G_PRP G_V'
p1521
I116
sS'E G_X G_X'
p1522
I5
sS'<s> G_PRT G_SYM'
p1523
I1
sS'PSP G_PRT PSP'
p1524
I3
sS'G_N G_PRP #'
p1525
I1
sS'G_X DT PSP'
p1526
I3
sS'E G_N <\\s>'
p1527
I1
sS'G_N G_X G_N'
p1528
I157
sS'# G_X CC'
p1529
I1
sS'G_N E CC'
p1530
I1
sS'DT G_X <\\s>'
p1531
I3
sS'G_J E G_R'
p1532
I1
sS'G_PRT # G_X'
p1533
I2
sS'G_PRT G_R <\\s>'
p1534
I1
sS'G_N G_X G_J'
p1535
I29
sS'$ G_X G_PRT'
p1536
I3
sS'CC U'
p1537
I1
sS'G_R G_V G_V'
p1538
I25
sS'G_V G_PRP G_J'
p1539
I31
sS'G_PRP $ G_J'
p1540
I1
sS'G_V G_PRP G_N'
p1541
I99
sS'G_PRP $ G_N'
p1542
I6
sS'G_V G_PRP G_R'
p1543
I41
sS'G_V G_PRP G_V'
p1544
I95
sS'G_PRP $ G_V'
p1545
I1
sS'G_V G_PRP G_X'
p1546
I59
sS'<s> $ E'
p1547
I1
sS'G_R G_V G_N'
p1548
I35
sS'G_R G_J PSP'
p1549
I17
sS'<s> G_N <\\s>'
p1550
I3
sS'G_N G_SYM G_V'
p1551
I1
sS'G_PRP G_V E'
p1552
I3
sS'G_SYM G_N CC'
p1553
I5
sS'# G_X G_N'
p1554
I15
sS'DT <\\s> <s>'
p1555
I1
sS'# G_X G_J'
p1556
I4
sS'# E <\\s>'
p1557
I1
sS'# G_X G_X'
p1558
I5
sS'G_V $ G_J'
p1559
I2
sS'# G_X G_V'
p1560
I8
sS'# # G_N'
p1561
I1
sS'# G_X G_R'
p1562
I7
sS'G_PRP G_V $'
p1563
I10
sS'G_V DT G_PRT'
p1564
I3
sS'G_V DT G_PRP'
p1565
I6
sS'G_N PSP G_PRP'
p1566
I110
sS'G_X $ G_PRT'
p1567
I1
sS'G_N PSP G_PRT'
p1568
I16
sS'G_X $ G_PRP'
p1569
I2
sS'G_R G_X G_V'
p1570
I16
sS'G_X G_R DT'
p1571
I17
sS'PSP <\\s>'
p1572
I8
sS'G_PRP G_PRT G_PRT'
p1573
I3
sS'E DT'
p1574
I1
sS'G_PRP G_PRT G_PRP'
p1575
I3
sS'G_J G_V G_PRP'
p1576
I6
sS'~ G_X @'
p1577
I1
sS'G_X PSP'
p1578
I201
sS'G_J G_V G_PRT'
p1579
I6
sS'G_PRP G_X <\\s>'
p1580
I23
sS'G_X E DT'
p1581
I1
sS'G_N CC G_J'
p1582
I18
sS'G_PRT G_V G_N'
p1583
I23
sS'G_R G_J G_SYM'
p1584
I2
sS'G_N CC G_N'
p1585
I67
sS'G_PRT G_V G_J'
p1586
I4
sS'G_SYM U'
p1587
I1
sS'G_X #'
p1588
I50
sS'G_PRT G_V G_V'
p1589
I33
sS'G_N CC G_V'
p1590
I56
sS'G_PRT G_V G_R'
p1591
I10
sS'G_X $'
p1592
I40
sS'G_N CC G_X'
p1593
I5
sS'G_PRT $'
p1594
I1
sS'CC E PSP'
p1595
I1
sS'G_PRT G_V G_X'
p1596
I24
sS'G_X U'
p1597
I19
sS'G_R CC PSP'
p1598
I1
sS'G_X @'
p1599
I14
sS'G_X E'
p1600
I69
sS'G_PRP G_V <\\s>'
p1601
I4
sS'# G_SYM'
p1602
I1
sS'G_X ~'
p1603
I1
sS'G_X G_SYM PSP'
p1604
I4
sS'E G_V <\\s>'
p1605
I1
sS'G_X PSP PSP'
p1606
I3
sS'PSP G_PRP G_X'
p1607
I43
sS'PSP G_PRP G_V'
p1608
I129
sS'G_PRT G_R PSP'
p1609
I3
sS'G_R #'
p1610
I2
sS'PSP G_PRP G_R'
p1611
I13
sS'G_R $'
p1612
I8
sS'PSP G_PRP G_N'
p1613
I49
sS'PSP G_PRP G_J'
p1614
I14
sS'G_PRP G_R @'
p1615
I1
sS'<\\s> <s>'
p1616
I771
sS'G_R # G_V'
p1617
I1
sS'G_R @'
p1618
I1
sS'G_R E'
p1619
I8
sS'G_PRP CC DT'
p1620
I5
sS'CC G_X E'
p1621
I1
sS'PSP E <\\s>'
p1622
I1
sS'G_PRP G_N DT'
p1623
I12
sS'U CC'
p1624
I1
sS'G_PRT $ CC'
p1625
I1
sS'G_R G_R PSP'
p1626
I8
sS'# U'
p1627
I4
sS'PSP $ PSP'
p1628
I4
sS'# @'
p1629
I3
sS'G_J G_PRP G_X'
p1630
I2
sS'# E'
p1631
I3
sS'G_V G_R'
p1632
I269
sS'G_V G_V'
p1633
I834
sS'G_V G_X'
p1634
I369
sS'G_PRP G_PRT DT'
p1635
I1
sS'G_V G_J'
p1636
I188
sS'G_J G_V DT'
p1637
I6
sS'G_V G_N'
p1638
I373
sS'G_SYM G_R G_X'
p1639
I3
sS'G_SYM G_R G_V'
p1640
I2
sS'# G_X G_PRT'
p1641
I8
sS'# G_X G_PRP'
p1642
I38
sS'CC PSP G_PRP'
p1643
I2
sS'G_N G_V G_SYM'
p1644
I2
sS'CC G_V DT'
p1645
I23
sS'PSP G_PRP G_SYM'
p1646
I2
sS'CC $ G_PRP'
p1647
I1
sS'G_V CC G_PRP'
p1648
I19
sS'# #'
p1649
I63
sS'G_V CC G_PRT'
p1650
I1
sS'<s> G_X G_PRP'
p1651
I2
sS'G_PRT E G_N'
p1652
I3
sS'PSP G_PRP CC'
p1653
I10
sS'G_R G_X DT'
p1654
I5
sS'G_SYM G_X <\\s>'
p1655
I1
sS'PSP G_V PSP'
p1656
I26
sS'G_R G_X'
p1657
I147
sS'G_R G_V'
p1658
I250
sS'PSP $ <\\s>'
p1659
I1
sS'G_R G_R'
p1660
I66
sS'G_PRP G_V G_SYM'
p1661
I2
sS'G_J G_R PSP'
p1662
I5
sS'G_R G_N'
p1663
I90
sS'G_PRP G_PRP PSP'
p1664
I4
sS'G_R $ G_V'
p1665
I3
sS'G_N PSP @'
p1666
I1
sS'G_N PSP E'
p1667
I2
sS'G_J G_X G_R'
p1668
I13
sS'DT G_N G_SYM'
p1669
I3
sS'G_J G_X G_V'
p1670
I15
sS'G_SYM G_V <\\s>'
p1671
I1
sS'G_J G_X G_X'
p1672
I22
sS'G_X G_SYM G_SYM'
p1673
I3
sS'G_J G_X G_J'
p1674
I4
sS'G_N PSP #'
p1675
I1
sS'G_N PSP $'
p1676
I20
sS'G_J G_X G_N'
p1677
I19
sS'<\\s> <s> G_X'
p1678
I26
sS'G_R G_PRP $'
p1679
I1
sS'<\\s> <s> G_R'
p1680
I30
sS'G_PRT # PSP'
p1681
I2
sS'DT G_SYM G_J'
p1682
I1
sS'<\\s> <s> G_V'
p1683
I56
sS'DT G_SYM G_N'
p1684
I2
sS'<\\s> <s> G_J'
p1685
I30
sS'DT G_SYM G_R'
p1686
I2
sS'<\\s> <s> G_N'
p1687
I178
sS'DT G_SYM G_X'
p1688
I1
sS'G_V G_PRP <\\s>'
p1689
I4
sS'G_R G_V CC'
p1690
I13
sS'G_PRP PSP DT'
p1691
I20
sS'G_N G_PRP DT'
p1692
I1
sS'PSP G_X G_PRP'
p1693
I11
sS'PSP G_X G_PRT'
p1694
I3
sS'G_N CC DT'
p1695
I25
sS'@ <\\s>'
p1696
I6
sS'CC G_V G_V'
p1697
I19
sS'CC G_V G_R'
p1698
I11
sS'$ E <\\s>'
p1699
I1
sS'G_SYM G_V'
p1700
I19
sS'CC G_V G_X'
p1701
I10
sS'G_SYM G_N'
p1702
I67
sS'G_SYM G_J'
p1703
I21
sS'CC G_V G_N'
p1704
I23
sS'CC G_V G_J'
p1705
I14
sS'PSP G_J G_V'
p1706
I18
sS'PSP G_J G_X'
p1707
I10
sS'G_PRP G_PRP $'
p1708
I1
sS'PSP G_J G_J'
p1709
I9
sS'G_J E E'
p1710
I1
sS'PSP G_J G_N'
p1711
I57
sS'# G_V <\\s>'
p1712
I1
sS'G_X # G_X'
p1713
I9
sS'CC DT G_V'
p1714
I5
sS'PSP DT G_SYM'
p1715
I1
sS'CC DT G_R'
p1716
I1
sS'G_X # G_R'
p1717
I1
sS'$ CC G_V'
p1718
I1
sS'G_X # G_V'
p1719
I2
sS'CC DT G_X'
p1720
I3
sS'$ CC G_R'
p1721
I1
sS'~ <\\s> <s>'
p1722
I1
sS'G_X # G_N'
p1723
I3
sS'G_N G_PRP CC'
p1724
I5
sS'G_PRP G_V CC'
p1725
I33
sS'G_N @ @'
p1726
I1
sS'CC DT G_N'
p1727
I48
sS'CC DT G_J'
p1728
I14
sS'G_N U G_N'
p1729
I1
sS'$ PSP $'
p1730
I1
sS'# G_N'
p1731
I12
sS'# G_J'
p1732
I2
sS'G_X G_J PSP'
p1733
I1
sS'DT G_X G_N'
p1734
I4
sS'G_N G_V #'
p1735
I6
sS'# <\\s> <s>'
p1736
I69
sS'G_X CC @'
p1737
I1
sS'G_N G_V $'
p1738
I3
sS'# G_R'
p1739
I2
sS'PSP G_J $'
p1740
I2
sS'# G_X'
p1741
I114
sS'CC G_R PSP'
p1742
I6
sS'PSP CC CC'
p1743
I1
sS'# G_N G_V'
p1744
I5
sS'G_N G_V G_N'
p1745
I44
sS'G_N G_V G_J'
p1746
I32
sS'G_PRP G_J DT'
p1747
I1
sS'DT G_X G_J'
p1748
I2
sS'# G_N G_X'
p1749
I2
sS'@ G_PRT E'
p1750
I1
sS'G_N G_V E'
p1751
I7
sS'G_N G_V G_X'
p1752
I72
sS'PSP G_J E'
p1753
I3
sS'G_N G_V G_V'
p1754
I168
sS'G_N G_V G_R'
p1755
I43
sS'G_V G_PRT PSP'
p1756
I19
sS'G_X U G_X'
p1757
I1
sS'@ G_PRP G_V'
p1758
I2
sS'G_J G_N @'
p1759
I1
sS'@ G_PRT G_N'
p1760
I3
sS'@ G_PRT G_R'
p1761
I1
sS'G_N @ #'
p1762
I1
sS'G_PRT CC'
p1763
I11
sS'@ G_PRT G_V'
p1764
I2
sS'@ G_PRT G_X'
p1765
I4
sS'G_X @ <\\s>'
p1766
I2
sS'null G_X'
p1767
I1
sS'<s> G_N G_SYM'
p1768
I2
sS'G_V E G_V'
p1769
I2
sS'CC CC PSP'
p1770
I1
sS'G_V E G_X'
p1771
I2
sS'E G_SYM G_N'
p1772
I1
sS'G_V E G_N'
p1773
I1
sS'PSP G_PRP $'
p1774
I3
sS'G_V G_R G_J'
p1775
I42
sS'G_V G_R G_N'
p1776
I17
sS'G_J G_J G_PRT'
p1777
I1
sS'G_J G_J G_PRP'
p1778
I1
sS'G_V G_R G_X'
p1779
I25
sS'<s> PSP $'
p1780
I1
sS'@ G_SYM G_J'
p1781
I2
sS'@ @ G_PRT'
p1782
I4
sS'G_J G_J PSP'
p1783
I6
sS'G_V G_R G_R'
p1784
I23
sS'@ # G_PRT'
p1785
I1
sS'G_V G_R G_V'
p1786
I51
sS'G_R G_X G_SYM'
p1787
I1
sS'G_R G_SYM G_V'
p1788
I2
sS'DT G_J G_V'
p1789
I18
sS'DT G_J G_X'
p1790
I18
sS'G_R G_SYM G_X'
p1791
I1
sS'$ E'
p1792
I2
sS'G_V DT CC'
p1793
I3
sS'G_PRT G_J PSP'
p1794
I1
sS'DT G_J G_J'
p1795
I17
sS'DT G_J G_N'
p1796
I219
sS'G_R PSP $'
p1797
I4
sS'G_PRP G_R G_X'
p1798
I10
sS'PSP G_R G_PRT'
p1799
I3
sS'G_PRP G_R G_V'
p1800
I62
sS'PSP G_R G_PRP'
p1801
I11
sS'G_PRP G_R G_R'
p1802
I11
sS'G_PRP G_R G_N'
p1803
I10
sS'G_PRP G_R G_J'
p1804
I10
sS'$ PSP'
p1805
I21
sS'<s> PSP G_SYM'
p1806
I2
sS'G_J G_N G_J'
p1807
I8
sS'G_J G_N G_N'
p1808
I55
sS'G_J G_N G_R'
p1809
I34
sS'G_R G_PRT CC'
p1810
I1
sS'G_J G_N G_V'
p1811
I75
sS'G_J G_N G_X'
p1812
I153
sS'G_V G_X U'
p1813
I4
sS'E E G_V'
p1814
I1
sS'CC CC'
p1815
I4
sS'@ # #'
p1816
I1
sS'G_V G_X E'
p1817
I15
sS'G_V G_X @'
p1818
I1
sS'G_R G_J #'
p1819
I1
sS'G_R G_J $'
p1820
I1
sS'E E G_N'
p1821
I2
sS'G_SYM <\\s>'
p1822
I1
sS'G_N G_X CC'
p1823
I39
sS'G_V G_X $'
p1824
I3
sS'G_V G_X #'
p1825
I18
sS'G_PRT <\\s> <s>'
p1826
I22
sS'$ G_X <\\s>'
p1827
I2
sS'G_R G_J E'
p1828
I4
sS'PSP DT $'
p1829
I6
sS'# G_PRP G_V'
p1830
I1
sS'E E G_PRT'
p1831
I1
sS'G_N G_J CC'
p1832
I4
sS'CC G_N G_PRT'
p1833
I2
sS'CC G_N G_PRP'
p1834
I7
sS'@ G_R G_X'
p1835
I1
sS'G_PRT CC G_N'
p1836
I3
sS'G_PRT CC G_V'
p1837
I7
sS'G_PRT CC G_X'
p1838
I1
sS'@ G_R G_J'
p1839
I1
sS'@ G_R G_N'
p1840
I2
sS'@ G_N PSP'
p1841
I7
sS'G_N E'
p1842
I45
sS'G_PRP G_N @'
p1843
I1
sS'G_PRP G_N E'
p1844
I3
sS'G_PRT G_PRP G_PRT'
p1845
I2
sS'G_PRT G_PRP G_PRP'
p1846
I4
sS'PSP DT PSP'
p1847
I1
sS'$ G_R G_X'
p1848
I1
sS'G_N @'
p1849
I3
sS'G_PRP G_N #'
p1850
I1
sS'@ G_N U'
p1851
I1
sS'G_PRT G_PRP G_N'
p1852
I7
sS'G_PRT G_PRT G_SYM'
p1853
I1
sS'G_PRT G_PRP G_J'
p1854
I1
sS'G_X <\\s>'
p1855
I341
sS'G_PRT @ G_N'
p1856
I1
sS'G_SYM G_N PSP'
p1857
I10
sS'G_PRT G_PRP G_X'
p1858
I13
sS'G_PRT G_PRP G_V'
p1859
I13
sS'G_SYM # G_N'
p1860
I1
sS'G_N G_PRP'
p1861
I217
sS'<s> G_N E'
p1862
I3
sS'G_N G_PRT'
p1863
I147
sS'# # PSP'
p1864
I1
sS'CC G_SYM G_N'
p1865
I3
sS'<s> G_PRP'
p1866
I72
sS'CC G_SYM G_J'
p1867
I2
sS'<s> G_PRT'
p1868
I73
sS'G_V G_X PSP'
p1869
I22
sS'# G_X PSP'
p1870
I6
sS'G_R G_X G_PRP'
p1871
I25
sS'G_J G_SYM G_PRP'
p1872
I1
sS'G_R G_X G_PRT'
p1873
I3
sS'<s> CC'
p1874
I9
sS'PSP G_N <\\s>'
p1875
I7
sS'$ G_N G_PRT'
p1876
I2
sS'$ G_N G_PRP'
p1877
I5
sS'G_N G_PRT G_V'
p1878
I56
sS'G_N G_PRT G_R'
p1879
I2
sS'G_J G_N <\\s>'
p1880
I8
sS'G_R G_J'
p1881
I124
sS'G_J DT G_J'
p1882
I2
sS'G_N G_PRT G_X'
p1883
I14
sS'G_J PSP $'
p1884
I1
sS'G_PRP # <\\s>'
p1885
I1
sS'G_SYM PSP G_V'
p1886
I1
sS'G_N G_PRT G_N'
p1887
I29
sS'G_N G_PRT G_J'
p1888
I7
sS'G_R G_SYM'
p1889
I9
sS'CC $ PSP'
p1890
I1
sS'$ G_J <\\s>'
p1891
I1
sS'G_PRT G_V @'
p1892
I1
sS'G_V null G_X'
p1893
I1
sS'G_V DT DT'
p1894
I11
sS'G_X G_R PSP'
p1895
I16
sS'U PSP'
p1896
I1
sS'<s> G_SYM G_PRT'
p1897
I2
sS'CC G_J PSP'
p1898
I3
sS'PSP G_SYM G_PRP'
p1899
I1
sS'PSP G_SYM G_PRT'
p1900
I1
sS'CC G_PRT'
p1901
I7
sS'DT G_PRP G_V'
p1902
I9
sS'E G_N G_PRT'
p1903
I1
sS'G_PRT G_V G_PRP'
p1904
I25
sS'G_PRT G_V G_PRT'
p1905
I12
sS'G_PRP DT'
p1906
I59
sS'DT G_SYM G_PRT'
p1907
I1
sS'DT G_PRP G_J'
p1908
I1
sS'G_SYM G_R PSP'
p1909
I1
sS'DT G_PRP G_N'
p1910
I3
sS'G_X CC G_J'
p1911
I8
sS'G_V G_X CC'
p1912
I16
sS'G_PRP G_V DT'
p1913
I140
sS'CC @ G_N'
p1914
I1
sS'G_PRT G_X G_SYM'
p1915
I1
sS'DT G_N G_PRT'
p1916
I15
sS'DT G_N G_PRP'
p1917
I36
sS'<s> PSP G_PRP'
p1918
I5
sS'DT DT G_J'
p1919
I6
sS'<s> G_PRT G_X'
p1920
I28
sS'<s> G_PRT G_J'
p1921
I4
sS'<s> G_PRT G_N'
p1922
I13
sS'$ G_N G_R'
p1923
I12
sS'# G_X $'
p1924
I4
sS'$ G_N G_V'
p1925
I14
sS'G_N G_R G_PRP'
p1926
I25
sS'$ G_N G_X'
p1927
I25
sS'G_N G_R G_PRT'
p1928
I3
sS'@ @ G_V'
p1929
I2
sS'DT # E'
p1930
I1
sS'G_SYM <\\s> <s>'
p1931
I1
sS'@ @ G_N'
p1932
I6
sS'$ G_N G_J'
p1933
I3
sS'$ G_N G_N'
p1934
I14
sS'G_N G_X G_SYM'
p1935
I11
sS'DT G_R PSP'
p1936
I1
sS'# # U'
p1937
I2
sS'G_PRT G_N G_PRP'
p1938
I16
sS'G_N <\\s> <s>'
p1939
I79
sS'G_PRT G_N G_PRT'
p1940
I11
sS'G_PRP $'
p1941
I13
sS'G_PRP #'
p1942
I3
sS'G_N E <\\s>'
p1943
I28
sS'<s> # <\\s>'
p1944
I1
sS'PSP # <\\s>'
p1945
I1
sS'G_X # G_PRT'
p1946
I1
sS'$ G_V DT'
p1947
I1
sS'G_J PSP PSP'
p1948
I3
sS'G_X G_X G_SYM'
p1949
I1
sS'G_PRP E'
p1950
I9
sS'G_X G_N PSP'
p1951
I40
sS'G_N @ DT'
p1952
I1
sS'PSP $ CC'
p1953
I1
sS'# G_X E'
p1954
I1
sS'G_PRP G_PRP G_PRP'
p1955
I4
sS'G_PRP G_PRP G_PRT'
p1956
I1
sS'E G_SYM'
p1957
I1
sS'# G_V PSP'
p1958
I1
sS'G_J G_R G_PRP'
p1959
I3
sS'<s> G_J'
p1960
I30
sS'G_X E <\\s>'
p1961
I49
sS'G_R G_J <\\s>'
p1962
I1
sS'G_PRP G_J PSP'
p1963
I7
sS'G_J PSP'
p1964
I96
sS'@ G_SYM'
p1965
I2
sS'~ G_X'
p1966
I1
sS'CC $ CC'
p1967
I1
sS'G_N G_V CC'
p1968
I14
sS'<s> G_SYM G_J'
p1969
I3
sS'<s> G_SYM G_N'
p1970
I2
sS'G_X G_R CC'
p1971
I6
sS'DT $ G_J'
p1972
I3
sS'DT G_N CC'
p1973
I60
sS'DT $ G_N'
p1974
I5
sS'DT $ G_V'
p1975
I2
sS'G_J G_N G_SYM'
p1976
I3
sS'G_V G_J CC'
p1977
I18
sS'DT $ G_X'
p1978
I1
sS'CC E'
p1979
I1
sS'<s> G_SYM G_V'
p1980
I1
sS'CC @'
p1981
I1
sS'CC G_PRP PSP'
p1982
I16
sS'DT CC $'
p1983
I1
sS'DT G_V G_N'
p1984
I10
sS'G_V G_PRT <\\s>'
p1985
I4
sS'DT G_V G_J'
p1986
I1
sS'DT G_V G_V'
p1987
I10
sS'DT G_V G_R'
p1988
I3
sS'CC $'
p1989
I11
sS'DT G_V G_X'
p1990
I11
sS'CC #'
p1991
I1
sS'<s> G_X G_V'
p1992
I3
sS'G_PRT G_X G_X'
p1993
I11
sS'<s> G_X G_R'
p1994
I2
sS'G_R G_PRP G_X'
p1995
I11
sS'G_N G_X PSP'
p1996
I88
sS'G_R G_PRP G_V'
p1997
I106
sS'# G_PRT G_PRP'
p1998
I1
sS'G_PRT G_X G_V'
p1999
I10
sS'<s> G_X G_X'
p2000
I3
sS'G_R G_PRP G_R'
p2001
I5
sS'# G_PRT G_PRT'
p2002
I1
sS'G_PRT G_X G_R'
p2003
I7
sS'DT <\\s>'
p2004
I1
sS'G_R G_PRP G_N'
p2005
I14
sS'G_N G_PRT U'
p2006
I1
sS'G_PRT G_X G_N'
p2007
I18
sS'G_R G_PRP G_J'
p2008
I2
sS'G_PRT G_X G_J'
p2009
I3
sS'<s> G_X G_N'
p2010
I9
sS'G_PRT G_X G_PRP'
p2011
I31
sS'G_PRT G_X G_PRT'
p2012
I15
sS'G_R $ G_N'
p2013
I4
sS'G_R $ G_J'
p2014
I1
sS'$ G_J G_PRP'
p2015
I1
sS'G_N G_PRT E'
p2016
I1
sS'# G_J G_N'
p2017
I2
sS'G_X DT G_J'
p2018
I21
sS'@ G_PRP G_N'
p2019
I4
sS'G_X DT G_N'
p2020
I54
sS'@ G_PRP G_J'
p2021
I1
sS'PSP G_X U'
p2022
I2
sS'@ CC'
p2023
I2
sS'G_X DT G_X'
p2024
I7
sS'G_R E E'
p2025
I1
sS'G_X DT G_R'
p2026
I1
sS'PSP G_X E'
p2027
I3
sS'G_X DT G_V'
p2028
I13
sS'@ G_PRP G_R'
p2029
I1
sS'DT DT G_V'
p2030
I2
sS'G_R G_R E'
p2031
I1
sS'DT DT G_R'
p2032
I1
sS'PSP G_N PSP'
p2033
I105
sS'DT DT G_X'
p2034
I2
sS'U CC G_V'
p2035
I1
sS'E G_PRT <\\s>'
p2036
I1
sS'DT DT G_N'
p2037
I13
sS'PSP G_X $'
p2038
I5
sS'G_V G_N <\\s>'
p2039
I6
sS'PSP G_X #'
p2040
I2
sS'G_N PSP CC'
p2041
I6
sS'G_J PSP G_PRT'
p2042
I3
sS'PSP CC G_J'
p2043
I1
sS'G_J PSP G_PRP'
p2044
I20
sS'PSP CC G_N'
p2045
I4
sS'G_V G_PRT CC'
p2046
I4
sS'G_J # #'
p2047
I1
sS'G_PRP <\\s> <s>'
p2048
I9
sS'G_N G_J PSP'
p2049
I11
sS'PSP CC G_V'
p2050
I5
sS'G_J # <\\s>'
p2051
I1
sS'G_N DT #'
p2052
I1
sS'PSP G_V G_SYM'
p2053
I1
sS'$ DT G_R'
p2054
I1
sS'G_N $ G_PRT'
p2055
I1
sS'$ DT G_N'
p2056
I1
sS'CC G_N DT'
p2057
I1
sS'G_X DT DT'
p2058
I6
sS'G_PRT G_X <\\s>'
p2059
I21
sS'G_PRT DT G_SYM'
p2060
I1
sS'@ # G_R'
p2061
I1
sS'@ # G_X'
p2062
I2
sS'G_R G_V DT'
p2063
I37
sS'G_R DT G_SYM'
p2064
I1
sS'<s> G_V E'
p2065
I1
sS'G_J G_N CC'
p2066
I50
s.